; Function Attrs: mustprogress uwtable
define void @_ZN8QuantLib26ExtendedBlackVarianceCurve6updateEv(ptr noundef nonnull align 8 dereferenceable(201) %this) unnamed_addr #7 align 2 {
entry:
  tail call void @_ZN8QuantLib26ExtendedBlackVarianceCurve12setVariancesEv(ptr noundef nonnull align 8 dereferenceable(201) %this)
  %impl_.i = getelementptr inbounds nuw i8, ptr %this, i64 184
  %0 = load ptr, ptr %impl_.i, align 8, !tbaa !96
  %cmp.not.i.i = icmp eq ptr %0, null
  br i1 %cmp.not.i.i, label %cond.false.i.i, label %_ZN8QuantLib13Interpolation6updateEv.exit, !prof !91

cond.false.i.i:                                   ; preds = %entry
  tail call void @_ZN5boost16assertion_failedEPKcS1_S1_l(ptr noundef nonnull @.str.10, ptr noundef nonnull @__PRETTY_FUNCTION__._ZNK5boost10shared_ptrIN8QuantLib13Interpolation4ImplEEptEv, ptr noundef nonnull @.str.11, i64 noundef 784)
  %.pre.i.i = load ptr, ptr %impl_.i, align 8, !tbaa !96
  br label %_ZN8QuantLib13Interpolation6updateEv.exit

_ZN8QuantLib13Interpolation6updateEv.exit:        ; preds = %entry, %cond.false.i.i
  %1 = phi ptr [ %0, %entry ], [ %.pre.i.i, %cond.false.i.i ]
  %vtable.i = load ptr, ptr %1, align 8, !tbaa !42
  %vfn.i = getelementptr inbounds i8, ptr %vtable.i, i64 16
  %2 = load ptr, ptr %vfn.i, align 8
  tail call void %2(ptr noundef nonnull align 8 dereferenceable(8) %1)
  %vtable = load ptr, ptr %this, align 8, !tbaa !42
  %vbase.offset.ptr = getelementptr i8, ptr %vtable, i64 -32
  %vbase.offset = load i64, ptr %vbase.offset.ptr, align 8
  %add.ptr = getelementptr inbounds i8, ptr %this, i64 %vbase.offset
  tail call void @_ZN8QuantLib10Observable15notifyObserversEv(ptr noundef nonnull align 8 dereferenceable(56) %add.ptr)
  ret void
}